target datalayout = "e-m:e-p270:32:32-p271:32:32-p272:64:64-i64:64-i128:128-f80:128-n8:16:32:64-S128"
target triple = "x86_64-pc-linux-gnu"

%"class.cvc5::internal::Options" = type { %"class.std::unique_ptr.174", %"class.std::unique_ptr.182", %"class.std::unique_ptr.190", %"class.std::unique_ptr.198", %"class.std::unique_ptr.206", %"class.std::unique_ptr.214", %"class.std::unique_ptr.222", %"class.std::unique_ptr.230", %"class.std::unique_ptr.238", %"class.std::unique_ptr.246", %"class.std::unique_ptr.254", %"class.std::unique_ptr.262", %"class.std::unique_ptr.270", %"class.std::unique_ptr.278", %"class.std::unique_ptr.286", %"class.std::unique_ptr.294", %"class.std::unique_ptr.302", %"class.std::unique_ptr.310", %"class.std::unique_ptr.318", %"class.std::unique_ptr.326", %"class.std::unique_ptr.334", %"class.std::unique_ptr.342", %"class.std::unique_ptr.350", %"class.std::unique_ptr.358", %"class.std::unique_ptr.366", ptr, ptr, ptr, ptr, ptr, ptr, ptr, ptr, ptr, ptr, ptr, ptr, ptr, ptr, ptr, ptr, ptr, ptr, ptr, ptr, ptr, ptr, ptr, ptr, ptr, %"class.std::unique_ptr.374" }
%"class.std::unique_ptr.174" = type { %"struct.std::__uniq_ptr_data.175" }
%"struct.std::__uniq_ptr_data.175" = type { %"class.std::__uniq_ptr_impl.176" }
%"class.std::__uniq_ptr_impl.176" = type { %"class.std::tuple.177" }
%"class.std::tuple.177" = type { %"struct.std::_Tuple_impl.178" }
%"struct.std::_Tuple_impl.178" = type { %"struct.std::_Head_base.181" }
%"struct.std::_Head_base.181" = type { ptr }
%"class.std::unique_ptr.182" = type { %"struct.std::__uniq_ptr_data.183" }
%"struct.std::__uniq_ptr_data.183" = type { %"class.std::__uniq_ptr_impl.184" }
%"class.std::__uniq_ptr_impl.184" = type { %"class.std::tuple.185" }
%"class.std::tuple.185" = type { %"struct.std::_Tuple_impl.186" }
%"struct.std::_Tuple_impl.186" = type { %"struct.std::_Head_base.189" }
%"struct.std::_Head_base.189" = type { ptr }
%"class.std::unique_ptr.190" = type { %"struct.std::__uniq_ptr_data.191" }
%"struct.std::__uniq_ptr_data.191" = type { %"class.std::__uniq_ptr_impl.192" }
%"class.std::__uniq_ptr_impl.192" = type { %"class.std::tuple.193" }
%"class.std::tuple.193" = type { %"struct.std::_Tuple_impl.194" }
%"struct.std::_Tuple_impl.194" = type { %"struct.std::_Head_base.197" }
%"struct.std::_Head_base.197" = type { ptr }
%"class.std::unique_ptr.198" = type { %"struct.std::__uniq_ptr_data.199" }
%"struct.std::__uniq_ptr_data.199" = type { %"class.std::__uniq_ptr_impl.200" }
%"class.std::__uniq_ptr_impl.200" = type { %"class.std::tuple.201" }
%"class.std::tuple.201" = type { %"struct.std::_Tuple_impl.202" }
%"struct.std::_Tuple_impl.202" = type { %"struct.std::_Head_base.205" }
%"struct.std::_Head_base.205" = type { ptr }
%"class.std::unique_ptr.206" = type { %"struct.std::__uniq_ptr_data.207" }
%"struct.std::__uniq_ptr_data.207" = type { %"class.std::__uniq_ptr_impl.208" }
%"class.std::__uniq_ptr_impl.208" = type { %"class.std::tuple.209" }
%"class.std::tuple.209" = type { %"struct.std::_Tuple_impl.210" }
%"struct.std::_Tuple_impl.210" = type { %"struct.std::_Head_base.213" }
%"struct.std::_Head_base.213" = type { ptr }
%"class.std::unique_ptr.214" = type { %"struct.std::__uniq_ptr_data.215" }
%"struct.std::__uniq_ptr_data.215" = type { %"class.std::__uniq_ptr_impl.216" }
%"class.std::__uniq_ptr_impl.216" = type { %"class.std::tuple.217" }
%"class.std::tuple.217" = type { %"struct.std::_Tuple_impl.218" }
%"struct.std::_Tuple_impl.218" = type { %"struct.std::_Head_base.221" }
%"struct.std::_Head_base.221" = type { ptr }
%"class.std::unique_ptr.222" = type { %"struct.std::__uniq_ptr_data.223" }
%"struct.std::__uniq_ptr_data.223" = type { %"class.std::__uniq_ptr_impl.224" }
%"class.std::__uniq_ptr_impl.224" = type { %"class.std::tuple.225" }
%"class.std::tuple.225" = type { %"struct.std::_Tuple_impl.226" }
%"struct.std::_Tuple_impl.226" = type { %"struct.std::_Head_base.229" }
%"struct.std::_Head_base.229" = type { ptr }
%"class.std::unique_ptr.230" = type { %"struct.std::__uniq_ptr_data.231" }
%"struct.std::__uniq_ptr_data.231" = type { %"class.std::__uniq_ptr_impl.232" }
%"class.std::__uniq_ptr_impl.232" = type { %"class.std::tuple.233" }
%"class.std::tuple.233" = type { %"struct.std::_Tuple_impl.234" }
%"struct.std::_Tuple_impl.234" = type { %"struct.std::_Head_base.237" }
%"struct.std::_Head_base.237" = type { ptr }
%"class.std::unique_ptr.238" = type { %"struct.std::__uniq_ptr_data.239" }
%"struct.std::__uniq_ptr_data.239" = type { %"class.std::__uniq_ptr_impl.240" }
%"class.std::__uniq_ptr_impl.240" = type { %"class.std::tuple.241" }
%"class.std::tuple.241" = type { %"struct.std::_Tuple_impl.242" }
%"struct.std::_Tuple_impl.242" = type { %"struct.std::_Head_base.245" }
%"struct.std::_Head_base.245" = type { ptr }
%"class.std::unique_ptr.246" = type { %"struct.std::__uniq_ptr_data.247" }
%"struct.std::__uniq_ptr_data.247" = type { %"class.std::__uniq_ptr_impl.248" }
%"class.std::__uniq_ptr_impl.248" = type { %"class.std::tuple.249" }
%"class.std::tuple.249" = type { %"struct.std::_Tuple_impl.250" }
%"struct.std::_Tuple_impl.250" = type { %"struct.std::_Head_base.253" }
%"struct.std::_Head_base.253" = type { ptr }
%"class.std::unique_ptr.254" = type { %"struct.std::__uniq_ptr_data.255" }
%"struct.std::__uniq_ptr_data.255" = type { %"class.std::__uniq_ptr_impl.256" }
%"class.std::__uniq_ptr_impl.256" = type { %"class.std::tuple.257" }
%"class.std::tuple.257" = type { %"struct.std::_Tuple_impl.258" }
%"struct.std::_Tuple_impl.258" = type { %"struct.std::_Head_base.261" }
%"struct.std::_Head_base.261" = type { ptr }
%"class.std::unique_ptr.262" = type { %"struct.std::__uniq_ptr_data.263" }
%"struct.std::__uniq_ptr_data.263" = type { %"class.std::__uniq_ptr_impl.264" }
%"class.std::__uniq_ptr_impl.264" = type { %"class.std::tuple.265" }
%"class.std::tuple.265" = type { %"struct.std::_Tuple_impl.266" }
%"struct.std::_Tuple_impl.266" = type { %"struct.std::_Head_base.269" }
%"struct.std::_Head_base.269" = type { ptr }
%"class.std::unique_ptr.270" = type { %"struct.std::__uniq_ptr_data.271" }
%"struct.std::__uniq_ptr_data.271" = type { %"class.std::__uniq_ptr_impl.272" }
%"class.std::__uniq_ptr_impl.272" = type { %"class.std::tuple.273" }
%"class.std::tuple.273" = type { %"struct.std::_Tuple_impl.274" }
%"struct.std::_Tuple_impl.274" = type { %"struct.std::_Head_base.277" }
%"struct.std::_Head_base.277" = type { ptr }
%"class.std::unique_ptr.278" = type { %"struct.std::__uniq_ptr_data.279" }
%"struct.std::__uniq_ptr_data.279" = type { %"class.std::__uniq_ptr_impl.280" }
%"class.std::__uniq_ptr_impl.280" = type { %"class.std::tuple.281" }
%"class.std::tuple.281" = type { %"struct.std::_Tuple_impl.282" }
%"struct.std::_Tuple_impl.282" = type { %"struct.std::_Head_base.285" }
%"struct.std::_Head_base.285" = type { ptr }
%"class.std::unique_ptr.286" = type { %"struct.std::__uniq_ptr_data.287" }
%"struct.std::__uniq_ptr_data.287" = type { %"class.std::__uniq_ptr_impl.288" }
%"class.std::__uniq_ptr_impl.288" = type { %"class.std::tuple.289" }
%"class.std::tuple.289" = type { %"struct.std::_Tuple_impl.290" }
%"struct.std::_Tuple_impl.290" = type { %"struct.std::_Head_base.293" }
%"struct.std::_Head_base.293" = type { ptr }
%"class.std::unique_ptr.294" = type { %"struct.std::__uniq_ptr_data.295" }
%"struct.std::__uniq_ptr_data.295" = type { %"class.std::__uniq_ptr_impl.296" }
%"class.std::__uniq_ptr_impl.296" = type { %"class.std::tuple.297" }
%"class.std::tuple.297" = type { %"struct.std::_Tuple_impl.298" }
%"struct.std::_Tuple_impl.298" = type { %"struct.std::_Head_base.301" }
%"struct.std::_Head_base.301" = type { ptr }
%"class.std::unique_ptr.302" = type { %"struct.std::__uniq_ptr_data.303" }
%"struct.std::__uniq_ptr_data.303" = type { %"class.std::__uniq_ptr_impl.304" }
%"class.std::__uniq_ptr_impl.304" = type { %"class.std::tuple.305" }
%"class.std::tuple.305" = type { %"struct.std::_Tuple_impl.306" }
%"struct.std::_Tuple_impl.306" = type { %"struct.std::_Head_base.309" }
%"struct.std::_Head_base.309" = type { ptr }
%"class.std::unique_ptr.310" = type { %"struct.std::__uniq_ptr_data.311" }
%"struct.std::__uniq_ptr_data.311" = type { %"class.std::__uniq_ptr_impl.312" }
%"class.std::__uniq_ptr_impl.312" = type { %"class.std::tuple.313" }
%"class.std::tuple.313" = type { %"struct.std::_Tuple_impl.314" }
%"struct.std::_Tuple_impl.314" = type { %"struct.std::_Head_base.317" }
%"struct.std::_Head_base.317" = type { ptr }
%"class.std::unique_ptr.318" = type { %"struct.std::__uniq_ptr_data.319" }
%"struct.std::__uniq_ptr_data.319" = type { %"class.std::__uniq_ptr_impl.320" }
%"class.std::__uniq_ptr_impl.320" = type { %"class.std::tuple.321" }
%"class.std::tuple.321" = type { %"struct.std::_Tuple_impl.322" }
%"struct.std::_Tuple_impl.322" = type { %"struct.std::_Head_base.325" }
%"struct.std::_Head_base.325" = type { ptr }
%"class.std::unique_ptr.326" = type { %"struct.std::__uniq_ptr_data.327" }
%"struct.std::__uniq_ptr_data.327" = type { %"class.std::__uniq_ptr_impl.328" }
%"class.std::__uniq_ptr_impl.328" = type { %"class.std::tuple.329" }
%"class.std::tuple.329" = type { %"struct.std::_Tuple_impl.330" }
%"struct.std::_Tuple_impl.330" = type { %"struct.std::_Head_base.333" }
%"struct.std::_Head_base.333" = type { ptr }
%"class.std::unique_ptr.334" = type { %"struct.std::__uniq_ptr_data.335" }
%"struct.std::__uniq_ptr_data.335" = type { %"class.std::__uniq_ptr_impl.336" }
%"class.std::__uniq_ptr_impl.336" = type { %"class.std::tuple.337" }
%"class.std::tuple.337" = type { %"struct.std::_Tuple_impl.338" }
%"struct.std::_Tuple_impl.338" = type { %"struct.std::_Head_base.341" }
%"struct.std::_Head_base.341" = type { ptr }
%"class.std::unique_ptr.342" = type { %"struct.std::__uniq_ptr_data.343" }
%"struct.std::__uniq_ptr_data.343" = type { %"class.std::__uniq_ptr_impl.344" }
%"class.std::__uniq_ptr_impl.344" = type { %"class.std::tuple.345" }
%"class.std::tuple.345" = type { %"struct.std::_Tuple_impl.346" }
%"struct.std::_Tuple_impl.346" = type { %"struct.std::_Head_base.349" }
%"struct.std::_Head_base.349" = type { ptr }
%"class.std::unique_ptr.350" = type { %"struct.std::__uniq_ptr_data.351" }
%"struct.std::__uniq_ptr_data.351" = type { %"class.std::__uniq_ptr_impl.352" }
%"class.std::__uniq_ptr_impl.352" = type { %"class.std::tuple.353" }
%"class.std::tuple.353" = type { %"struct.std::_Tuple_impl.354" }
%"struct.std::_Tuple_impl.354" = type { %"struct.std::_Head_base.357" }
%"struct.std::_Head_base.357" = type { ptr }
%"class.std::unique_ptr.358" = type { %"struct.std::__uniq_ptr_data.359" }
%"struct.std::__uniq_ptr_data.359" = type { %"class.std::__uniq_ptr_impl.360" }
%"class.std::__uniq_ptr_impl.360" = type { %"class.std::tuple.361" }
%"class.std::tuple.361" = type { %"struct.std::_Tuple_impl.362" }
%"struct.std::_Tuple_impl.362" = type { %"struct.std::_Head_base.365" }
%"struct.std::_Head_base.365" = type { ptr }
%"class.std::unique_ptr.366" = type { %"struct.std::__uniq_ptr_data.367" }
%"struct.std::__uniq_ptr_data.367" = type { %"class.std::__uniq_ptr_impl.368" }
%"class.std::__uniq_ptr_impl.368" = type { %"class.std::tuple.369" }
%"class.std::tuple.369" = type { %"struct.std::_Tuple_impl.370" }
%"struct.std::_Tuple_impl.370" = type { %"struct.std::_Head_base.373" }
%"struct.std::_Head_base.373" = type { ptr }
%"class.std::unique_ptr.374" = type { %"struct.std::__uniq_ptr_data.375" }
%"struct.std::__uniq_ptr_data.375" = type { %"class.std::__uniq_ptr_impl.376" }
%"class.std::__uniq_ptr_impl.376" = type { %"class.std::tuple.377" }
%"class.std::tuple.377" = type { %"struct.std::_Tuple_impl.378" }
%"struct.std::_Tuple_impl.378" = type { %"struct.std::_Head_base.381" }
%"struct.std::_Head_base.381" = type { ptr }
%"struct.cvc5::internal::options::HolderQUANTIFIERS" = type <{ i8, i8, i8, i8, i32, i8, i8, i8, i8, i8, i8, i8, i8, i32, i8, i8, i8, i8, i8, i8, i8, i8, i8, [3 x i8], i32, i8, i8, i8, i8, i8, i8, i8, i8, i8, i8, i8, i8, i8, i8, i8, i8, i8, i8, i8, i8, i8, i8, i8, i8, i8, i8, i8, i8, i8, [3 x i8], i32, i8, i8, i8, [5 x i8], i64, i8, [7 x i8], i64, i8, [7 x i8], i64, i8, i8, i8, i8, i8, i8, i8, i8, i8, i8, i8, i8, i8, i8, i8, i8, i64, i8, i8, i8, i8, i8, i8, i8, i8, i8, i8, i8, i8, i8, i8, i8, i8, i8, i8, i8, i8, i8, [3 x i8], i32, i8, [3 x i8], i64, i8, i8, i8, i8, i8, i8, i8, i8, i8, i8, i8, i8, i8, i8, i8, i8, i32, i8, i8, i8, i8, i64, i8, [7 x i8], i64, i8, i8, i8, i8, i32, i8, [7 x i8], i64, i8, i8, i8, i8, i8, [3 x i8], i32, i8, [3 x i8], i32, i8, i8, i8, i8, i32, i8, i8, i8, i8, i8, i8, i8, i8, i8, i8, i8, i8, i8, i8, i8, i8, i32, i8, i8, i8, i8, i8, i8, i8, i8, i8, i8, i8, i8, i8, i8, i8, i8, i8, [3 x i8], i32, i8, i8, i8, i8, i32, i8, i8, i8, i8, i32, i8, i8, i8, i8, i8, i8, i8, i8, i32, i8, i8, i8, i8, i8, [3 x i8], i32, i8, i8, i8, i8, i8, i8, i8, i8, i8, [7 x i8], i64, i8, i8, i8, i8, i8, i8, i8, i8, i8, i8, i8, i8, i8, i8, i8, i8, i32, i8, [3 x i8], i64, i8, [7 x i8], double, i8, [3 x i8], i32, i8, [7 x i8], i64, i8, [3 x i8], i32, i8, i8, i8, i8, i32, i8, i8, i8, i8, i8, [3 x i8], i32, i8, i8, i8, i8, i32, i8, [3 x i8], i32, i8, [3 x i8], i32, i8, [3 x i8], i32, i8, i8, i8, i8, i8, [3 x i8], i32, i8, i8, i8, i8, i8, [3 x i8], i64, i8, i8, i8, i8, i32, i8, [3 x i8], i32, i8, i8, i8, [5 x i8], i64, i8, i8, i8, [5 x i8], i64, i8, i8, i8, [5 x i8], i64, i8, i8, i8, i8, i8, i8, i8, i8, i8, i8, i8, i8, i8, [3 x i8], i64, i8, i8, i8, i8, i8, i8, i8, i8, i64, i8, [3 x i8], i32, i8, i8, i8, i8, i32, i8, [7 x i8], i64, i8, [7 x i8], double, i8, i8, i8, i8, i8, [3 x i8], i32, i8, i8, i8, i8, i64, i8, [7 x i8], i64, i8, [3 x i8], i32, i8, [3 x i8], i32, i8, [3 x i8], i32, i8, [3 x i8], i32, i8, [3 x i8], i32, i8, i8, i8, i8, i8, i8, i8, i8 }>

; Function Attrs: mustprogress uwtable
define hidden noundef zeroext i1 @_ZN4cvc58internal6theory11quantifiers14BvInstantiator13useModelValueEPNS2_15CegInstantiatorERNS2_10SolvedFormENS0_12NodeTemplateILb1EEENS2_13CegInstEffortE(ptr noundef nonnull align 8 dereferenceable(344) %0, ptr noundef %1, ptr noundef nonnull align 8 dereferenceable(120) %2, ptr noundef %3, i32 noundef %4) unnamed_addr #4 align 2 {
  %6 = alloca ptr, align 8
  %7 = alloca ptr, align 8
  %8 = alloca ptr, align 8
  %9 = alloca ptr, align 8
  %10 = alloca i32, align 4
  store ptr %0, ptr %6, align 8, !tbaa !3
  store ptr %1, ptr %7, align 8, !tbaa !53
  store ptr %2, ptr %8, align 8, !tbaa !55
  store ptr %3, ptr %9, align 8, !tbaa !57
  store i32 %4, ptr %10, align 4, !tbaa !59
  %11 = load ptr, ptr %6, align 8
  %12 = load i32, ptr %10, align 4, !tbaa !59
  %13 = icmp slt i32 %12, 3
  br i1 %13, label %21, label %14

14:                                               ; preds = %5
  %15 = call noundef nonnull align 8 dereferenceable(408) ptr @_ZNK4cvc58internal6EnvObj7optionsEv(ptr noundef nonnull align 8 dereferenceable(16) %11)
  %16 = getelementptr inbounds nuw %"class.cvc5::internal::Options", ptr %15, i32 0, i32 43
  %17 = load ptr, ptr %16, align 8, !tbaa !66
  %18 = getelementptr inbounds nuw %"struct.cvc5::internal::options::HolderQUANTIFIERS", ptr %17, i32 0, i32 34
  %19 = load i8, ptr %18, align 1, !tbaa !431, !range !289, !noundef !290
  %20 = trunc i8 %19 to i1
  br label %21

21:                                               ; preds = %14, %5
  %22 = phi i1 [ true, %5 ], [ %20, %14 ]
  ret i1 %22
}