; Function Attrs: mustprogress uwtable
define hidden noundef zeroext i1 @_ZN4cvc58internal6theory11quantifiers14BvInstantiator13useModelValueEPNS2_15CegInstantiatorERNS2_10SolvedFormENS0_12NodeTemplateILb1EEENS2_13CegInstEffortE(ptr noundef nonnull align 8 dereferenceable(344) %0, ptr readnone captures(none) %1, ptr nonnull readnone align 8 captures(none) %2, ptr readnone captures(none) %3, i32 noundef %4) unnamed_addr #3 align 2 {
  %6 = icmp slt i32 %4, 3
  br i1 %6, label %14, label %7

7:                                                ; preds = %5
  %8 = tail call noundef nonnull align 8 dereferenceable(408) ptr @_ZNK4cvc58internal6EnvObj7optionsEv(ptr noundef nonnull align 8 dereferenceable(16) %0)
  %9 = getelementptr inbounds nuw i8, ptr %8, i64 344
  %10 = load ptr, ptr %9, align 8, !tbaa !56
  %11 = getelementptr inbounds nuw i8, ptr %10, i64 45
  %12 = load i8, ptr %11, align 1, !tbaa !579, !range !279, !noundef !280
  %13 = trunc nuw i8 %12 to i1
  br label %14

14:                                               ; preds = %7, %5
  %15 = phi i1 [ true, %5 ], [ %13, %7 ]
  ret i1 %15
}